target datalayout = "e-m:e-p270:32:32-p271:32:32-p272:64:64-i64:64-i128:128-f80:128-n8:16:32:64-S128"
target triple = "x86_64-pc-linux-gnu"

; Function Attrs: nounwind uwtable
define dso_local i32 @binaryop_to_token(i32 noundef %0) #0 {
  %2 = alloca i32, align 4
  %3 = alloca i32, align 4
  %4 = alloca i32, align 4
  store i32 %0, ptr %3, align 4
  store i32 0, ptr %4, align 4
  br label %5

5:                                                ; preds = %18, %1
  %6 = load i32, ptr %4, align 4
  %7 = icmp ule i32 %6, 189
  br i1 %7, label %8, label %21

8:                                                ; preds = %5
  %9 = load i32, ptr %4, align 4
  %10 = zext i32 %9 to i64
  %11 = getelementptr inbounds [190 x i32], ptr @binary_op, i64 0, i64 %10
  %12 = load i32, ptr %11, align 4
  %13 = load i32, ptr %3, align 4
  %14 = icmp eq i32 %12, %13
  br i1 %14, label %15, label %17

15:                                               ; preds = %8
  %16 = load i32, ptr %4, align 4
  store i32 %16, ptr %2, align 4
  br label %22

17:                                               ; preds = %8
  br label %18

18:                                               ; preds = %17
  %19 = load i32, ptr %4, align 4
  %20 = add i32 %19, 1
  store i32 %20, ptr %4, align 4
  br label %5, !llvm.loop !9

21:                                               ; preds = %5
  store i32 0, ptr %2, align 4
  br label %22

22:                                               ; preds = %21, %15
  %23 = load i32, ptr %2, align 4
  ret i32 %23
}